; Function Attrs: mustprogress nofree norecurse nosync nounwind memory(argmem: readwrite) uwtable
define internal void @_ZN5arrow12_GLOBAL__N_121NewlineBoundaryFinder8FindLastESt17basic_string_viewIcSt11char_traitsIcEEPl(ptr noalias nocapture writeonly sret(%"class.arrow::Status") align 8 %agg.result, ptr nocapture nonnull readnone align 8 %this, i64 %block.coerce0, ptr nocapture readonly %block.coerce1, ptr nocapture noundef writeonly %out_pos) unnamed_addr #13 align 2 {
entry:
  %tobool.i.i.not = icmp eq i64 %block.coerce0, 0
  br i1 %tobool.i.i.not, label %if.end6, label %_ZNSt11char_traitsIcE4findEPKcmRS1_.exit.i.i

_ZNSt11char_traitsIcE4findEPKcmRS1_.exit.i.i:     ; preds = %entry, %do.cond.i.i
  %__size.1.i.i.in = phi i64 [ %__size.1.i.i, %do.cond.i.i ], [ %block.coerce0, %entry ]
  %__size.1.i.i = add i64 %__size.1.i.i.in, -1
  %arrayidx.i.i = getelementptr inbounds i8, ptr %block.coerce1, i64 %__size.1.i.i
  %0 = load i8, ptr %arrayidx.i.i, align 1
  switch i8 %0, label %do.cond.i.i [
    i8 13, label %if.else
    i8 10, label %if.else
  ]

do.cond.i.i:                                      ; preds = %_ZNSt11char_traitsIcE4findEPKcmRS1_.exit.i.i
  %cmp9.not.i.i = icmp eq i64 %__size.1.i.i, 0
  br i1 %cmp9.not.i.i, label %if.end6, label %_ZNSt11char_traitsIcE4findEPKcmRS1_.exit.i.i, !llvm.loop !110

if.else:                                          ; preds = %_ZNSt11char_traitsIcE4findEPKcmRS1_.exit.i.i, %_ZNSt11char_traitsIcE4findEPKcmRS1_.exit.i.i
  %cmp6.i.i = icmp ult i64 %__size.1.i.i, %block.coerce0
  br i1 %cmp6.i.i, label %for.body.i.i, label %if.then4

for.body.i.i:                                     ; preds = %if.else, %for.inc.i.i
  %__pos.addr.07.i.i = phi i64 [ %inc.i.i, %for.inc.i.i ], [ %__size.1.i.i, %if.else ]
  %arrayidx.i.i7 = getelementptr inbounds i8, ptr %block.coerce1, i64 %__pos.addr.07.i.i
  %1 = load i8, ptr %arrayidx.i.i7, align 1
  switch i8 %1, label %_ZNKSt17basic_string_viewIcSt11char_traitsIcEE17find_first_not_ofEPKcm.exit [
    i8 13, label %for.inc.i.i
    i8 10, label %for.inc.i.i
  ]

for.inc.i.i:                                      ; preds = %for.body.i.i, %for.body.i.i
  %inc.i.i = add i64 %__pos.addr.07.i.i, 1
  %exitcond.not.i.i = icmp eq i64 %inc.i.i, %block.coerce0
  br i1 %exitcond.not.i.i, label %if.then4, label %for.body.i.i, !llvm.loop !106

_ZNKSt17basic_string_viewIcSt11char_traitsIcEE17find_first_not_ofEPKcm.exit: ; preds = %for.body.i.i
  %cmp3 = icmp eq i64 %__pos.addr.07.i.i, -1
  br i1 %cmp3, label %if.then4, label %if.end6

if.then4:                                         ; preds = %for.inc.i.i, %if.else, %_ZNKSt17basic_string_viewIcSt11char_traitsIcEE17find_first_not_ofEPKcm.exit
  br label %if.end6

if.end6:                                          ; preds = %do.cond.i.i, %entry, %_ZNKSt17basic_string_viewIcSt11char_traitsIcEE17find_first_not_ofEPKcm.exit, %if.then4
  %storemerge = phi i64 [ %block.coerce0, %if.then4 ], [ %__pos.addr.07.i.i, %_ZNKSt17basic_string_viewIcSt11char_traitsIcEE17find_first_not_ofEPKcm.exit ], [ -1, %entry ], [ -1, %do.cond.i.i ]
  store i64 %storemerge, ptr %out_pos, align 8
  store ptr null, ptr %agg.result, align 8, !alias.scope !111
  ret void
}